target datalayout = "e-m:e-p270:32:32-p271:32:32-p272:64:64-i64:64-i128:128-f80:128-n8:16:32:64-S128"
target triple = "x86_64-pc-linux-gnu"

@debug = external global ptr, align 8
@.str.3 = private unnamed_addr constant [83 x i8] c"%8f %8f %8f\0A%8f %8f %8f\0A1-4 (%d,%d) interaction not within cut-off! r=%g. Ignored\0A\00", align 1

; Function Attrs: mustprogress uwtable
define internal void @_ZL14warning_rlimitPA3_KfiiPiff(ptr noundef %0, i32 noundef %1, i32 noundef %2, ptr noundef %3, float noundef %4, float noundef %5) #0 {
  %7 = alloca ptr, align 8
  %8 = alloca i32, align 4
  %9 = alloca i32, align 4
  %10 = alloca ptr, align 8
  %11 = alloca float, align 4
  %12 = alloca float, align 4
  store ptr %0, ptr %7, align 8
  store i32 %1, ptr %8, align 4
  store i32 %2, ptr %9, align 4
  store ptr %3, ptr %10, align 8
  store float %4, ptr %11, align 4
  store float %5, ptr %12, align 4
  %13 = load ptr, ptr %10, align 8
  %14 = load i32, ptr %8, align 4
  %15 = call noundef i32 @_Z6glatnrPKii(ptr noundef %13, i32 noundef %14)
  %16 = load ptr, ptr %10, align 8
  %17 = load i32, ptr %9, align 4
  %18 = call noundef i32 @_Z6glatnrPKii(ptr noundef %16, i32 noundef %17)
  %19 = load float, ptr %11, align 4
  %20 = fpext float %19 to double
  %21 = load float, ptr %12, align 4
  %22 = fpext float %21 to double
  call void (ptr, ...) @_Z11gmx_warningPKcz(ptr noundef @.str.2, i32 noundef %15, i32 noundef %18, double noundef %20, double noundef %22)
  %23 = load ptr, ptr @debug, align 8
  %24 = icmp ne ptr %23, null
  br i1 %24, label %25, label %78

25:                                               ; preds = %6
  %26 = load ptr, ptr @debug, align 8
  %27 = load ptr, ptr %7, align 8
  %28 = load i32, ptr %8, align 4
  %29 = sext i32 %28 to i64
  %30 = getelementptr inbounds [3 x float], ptr %27, i64 %29
  %31 = getelementptr inbounds [3 x float], ptr %30, i64 0, i64 0
  %32 = load float, ptr %31, align 4
  %33 = fpext float %32 to double
  %34 = load ptr, ptr %7, align 8
  %35 = load i32, ptr %8, align 4
  %36 = sext i32 %35 to i64
  %37 = getelementptr inbounds [3 x float], ptr %34, i64 %36
  %38 = getelementptr inbounds [3 x float], ptr %37, i64 0, i64 1
  %39 = load float, ptr %38, align 4
  %40 = fpext float %39 to double
  %41 = load ptr, ptr %7, align 8
  %42 = load i32, ptr %8, align 4
  %43 = sext i32 %42 to i64
  %44 = getelementptr inbounds [3 x float], ptr %41, i64 %43
  %45 = getelementptr inbounds [3 x float], ptr %44, i64 0, i64 2
  %46 = load float, ptr %45, align 4
  %47 = fpext float %46 to double
  %48 = load ptr, ptr %7, align 8
  %49 = load i32, ptr %9, align 4
  %50 = sext i32 %49 to i64
  %51 = getelementptr inbounds [3 x float], ptr %48, i64 %50
  %52 = getelementptr inbounds [3 x float], ptr %51, i64 0, i64 0
  %53 = load float, ptr %52, align 4
  %54 = fpext float %53 to double
  %55 = load ptr, ptr %7, align 8
  %56 = load i32, ptr %9, align 4
  %57 = sext i32 %56 to i64
  %58 = getelementptr inbounds [3 x float], ptr %55, i64 %57
  %59 = getelementptr inbounds [3 x float], ptr %58, i64 0, i64 1
  %60 = load float, ptr %59, align 4
  %61 = fpext float %60 to double
  %62 = load ptr, ptr %7, align 8
  %63 = load i32, ptr %9, align 4
  %64 = sext i32 %63 to i64
  %65 = getelementptr inbounds [3 x float], ptr %62, i64 %64
  %66 = getelementptr inbounds [3 x float], ptr %65, i64 0, i64 2
  %67 = load float, ptr %66, align 4
  %68 = fpext float %67 to double
  %69 = load ptr, ptr %10, align 8
  %70 = load i32, ptr %8, align 4
  %71 = call noundef i32 @_Z6glatnrPKii(ptr noundef %69, i32 noundef %70)
  %72 = load ptr, ptr %10, align 8
  %73 = load i32, ptr %9, align 4
  %74 = call noundef i32 @_Z6glatnrPKii(ptr noundef %72, i32 noundef %73)
  %75 = load float, ptr %11, align 4
  %76 = fpext float %75 to double
  %77 = call i32 (ptr, ptr, ...) @fprintf(ptr noundef %26, ptr noundef @.str.3, double noundef %33, double noundef %40, double noundef %47, double noundef %54, double noundef %61, double noundef %68, i32 noundef %71, i32 noundef %74, double noundef %76) #12
  br label %78

78:                                               ; preds = %25, %6
  ret void
}