; Function Attrs: mustprogress uwtable
define internal fastcc void @_ZL14warning_rlimitPA3_KfiiPiff(ptr nocapture noundef readonly %0, i32 noundef %1, i32 noundef %2, ptr noundef %3, float noundef %4, float noundef %5) unnamed_addr #0 {
  %7 = tail call noundef i32 @_Z6glatnrPKii(ptr noundef %3, i32 noundef %1)
  %8 = tail call noundef i32 @_Z6glatnrPKii(ptr noundef %3, i32 noundef %2)
  %9 = fpext float %4 to double
  %10 = fpext float %5 to double
  tail call void (ptr, ...) @_Z11gmx_warningPKcz(ptr noundef nonnull @.str.2, i32 noundef %7, i32 noundef %8, double noundef %9, double noundef %10)
  %11 = load ptr, ptr @debug, align 8
  %.not = icmp eq ptr %11, null
  br i1 %.not, label %36, label %12

12:                                               ; preds = %6
  %13 = sext i32 %1 to i64
  %14 = getelementptr inbounds [3 x float], ptr %0, i64 %13
  %15 = load float, ptr %14, align 4
  %16 = fpext float %15 to double
  %17 = getelementptr inbounds i8, ptr %14, i64 4
  %18 = load float, ptr %17, align 4
  %19 = fpext float %18 to double
  %20 = getelementptr inbounds i8, ptr %14, i64 8
  %21 = load float, ptr %20, align 4
  %22 = fpext float %21 to double
  %23 = sext i32 %2 to i64
  %24 = getelementptr inbounds [3 x float], ptr %0, i64 %23
  %25 = load float, ptr %24, align 4
  %26 = fpext float %25 to double
  %27 = getelementptr inbounds i8, ptr %24, i64 4
  %28 = load float, ptr %27, align 4
  %29 = fpext float %28 to double
  %30 = getelementptr inbounds i8, ptr %24, i64 8
  %31 = load float, ptr %30, align 4
  %32 = fpext float %31 to double
  %33 = tail call noundef i32 @_Z6glatnrPKii(ptr noundef %3, i32 noundef %1)
  %34 = tail call noundef i32 @_Z6glatnrPKii(ptr noundef %3, i32 noundef %2)
  %35 = tail call i32 (ptr, ptr, ...) @fprintf(ptr noundef nonnull %11, ptr noundef nonnull @.str.3, double noundef %16, double noundef %19, double noundef %22, double noundef %26, double noundef %29, double noundef %32, i32 noundef %33, i32 noundef %34, double noundef %9) #16
  br label %36

36:                                               ; preds = %12, %6
  ret void
}